; Function Attrs: nounwind uwtable
define dso_local ptr @bb_find_user_rec(i32 noundef %0, ptr noundef readonly captures(none) %1) local_unnamed_addr #0 {
  %3 = urem i32 %0, 100
  %4 = getelementptr inbounds nuw i8, ptr %1, i64 184
  %5 = load ptr, ptr %4, align 8
  %6 = zext nneg i32 %3 to i64
  %7 = getelementptr inbounds nuw ptr, ptr %5, i64 %6
  %.020 = load ptr, ptr %7, align 8
  %.not21 = icmp eq ptr %.020, null
  br i1 %.not21, label %._crit_edge, label %.lr.ph

.lr.ph:                                           ; preds = %2, %11
  %.022 = phi ptr [ %.0, %11 ], [ %.020, %2 ]
  %8 = getelementptr inbounds nuw i8, ptr %.022, i64 24
  %9 = load i32, ptr %8, align 8
  %10 = icmp eq i32 %9, %0
  br i1 %10, label %.loopexit, label %11

11:                                               ; preds = %.lr.ph
  %12 = getelementptr inbounds nuw i8, ptr %.022, i64 8
  %.0 = load ptr, ptr %12, align 8
  %.not = icmp eq ptr %.0, null
  br i1 %.not, label %._crit_edge, label %.lr.ph, !llvm.loop !23

._crit_edge:                                      ; preds = %11, %2
  %13 = tail call ptr @slurm_xcalloc(i64 noundef 1, i64 noundef 32, i1 noundef zeroext true, i1 noundef zeroext false, ptr noundef nonnull @.str, i32 noundef 315, ptr noundef nonnull @__func__.bb_find_user_rec) #17
  store i32 -559074157, ptr %13, align 8
  %14 = load ptr, ptr %4, align 8
  %15 = getelementptr inbounds nuw ptr, ptr %14, i64 %6
  %16 = load ptr, ptr %15, align 8
  %17 = getelementptr inbounds nuw i8, ptr %13, i64 8
  store ptr %16, ptr %17, align 8
  %18 = getelementptr inbounds nuw i8, ptr %13, i64 24
  store i32 %0, ptr %18, align 8
  %19 = load ptr, ptr %4, align 8
  %20 = getelementptr inbounds nuw ptr, ptr %19, i64 %6
  store ptr %13, ptr %20, align 8
  br label %.loopexit

.loopexit:                                        ; preds = %.lr.ph, %._crit_edge
  %.018 = phi ptr [ %13, %._crit_edge ], [ %.022, %.lr.ph ]
  ret ptr %.018
}